; Function Attrs: nounwind uwtable
define internal void @tts_minimal_materialize(ptr noundef captures(none) %0) #1 {
  %2 = getelementptr inbounds nuw i8, ptr %0, i64 4
  %3 = load i16, ptr %2, align 4
  %4 = and i16 %3, 4
  %.not = icmp eq i16 %4, 0
  br i1 %.not, label %5, label %31

5:                                                ; preds = %1
  %6 = getelementptr inbounds nuw i8, ptr %0, i64 40
  %7 = load ptr, ptr %6, align 8
  %8 = load ptr, ptr @CurrentMemoryContext, align 8
  store ptr %7, ptr @CurrentMemoryContext, align 8
  %9 = getelementptr inbounds nuw i8, ptr %0, i64 6
  store i16 0, ptr %9, align 2
  %10 = getelementptr inbounds nuw i8, ptr %0, i64 104
  store i32 0, ptr %10, align 8
  %11 = getelementptr inbounds nuw i8, ptr %0, i64 72
  %12 = load ptr, ptr %11, align 8
  %.not18 = icmp eq ptr %12, null
  br i1 %.not18, label %13, label %21

13:                                               ; preds = %5
  %14 = getelementptr inbounds nuw i8, ptr %0, i64 16
  %15 = load ptr, ptr %14, align 8
  %16 = getelementptr inbounds nuw i8, ptr %0, i64 24
  %17 = load ptr, ptr %16, align 8
  %18 = getelementptr inbounds nuw i8, ptr %0, i64 32
  %19 = load ptr, ptr %18, align 8
  %20 = tail call ptr @heap_form_minimal_tuple(ptr noundef %15, ptr noundef %17, ptr noundef %19) #14
  br label %23

21:                                               ; preds = %5
  %22 = tail call ptr @heap_copy_minimal_tuple(ptr noundef nonnull %12) #14
  br label %23

23:                                               ; preds = %21, %13
  %storemerge = phi ptr [ %20, %13 ], [ %22, %21 ]
  store ptr %storemerge, ptr %11, align 8
  %24 = load i16, ptr %2, align 4
  %25 = or i16 %24, 4
  store i16 %25, ptr %2, align 4
  %26 = load i32, ptr %storemerge, align 4
  %27 = add i32 %26, 8
  %28 = getelementptr inbounds nuw i8, ptr %0, i64 80
  store i32 %27, ptr %28, align 8
  %29 = getelementptr inbounds i8, ptr %storemerge, i64 -8
  %30 = getelementptr inbounds nuw i8, ptr %0, i64 96
  store ptr %29, ptr %30, align 8
  store ptr %8, ptr @CurrentMemoryContext, align 8
  br label %31

31:                                               ; preds = %1, %23
  ret void
}